target datalayout = "e-m:e-p270:32:32-p271:32:32-p272:64:64-i64:64-i128:128-f80:128-n8:16:32:64-S128"
target triple = "x86_64-pc-linux-gnu"

%struct.anon = type { i32, [0 x i8] }
%struct.varattrib_1b = type { i8, [0 x i8] }
%struct.varattrib_1b_e = type { i8, i8, [0 x i8] }
%struct.FunctionCallInfoBaseData = type { ptr, ptr, ptr, i32, i8, i16, [0 x %struct.NullableDatum] }
%struct.NullableDatum = type { i64, i8 }
%struct.nameData = type { [64 x i8] }

@.str.2 = private unnamed_addr constant [10 x i8] c"varlena.c\00", align 1
@.str.36 = private unnamed_addr constant [65 x i8] c"could not determine which collation to use for string comparison\00", align 1
@.str.37 = private unnamed_addr constant [56 x i8] c"Use the COLLATE clause to set the collation explicitly.\00", align 1
@__func__.check_collation_set = private unnamed_addr constant [20 x i8] c"check_collation_set\00", align 1

; Function Attrs: inlinehint nounwind uwtable
define internal i64 @BoolGetDatum(i1 noundef zeroext %0) #0 {
  %2 = alloca i8, align 1
  %3 = zext i1 %0 to i8
  store i8 %3, ptr %2, align 1
  %4 = load i8, ptr %2, align 1, !range !9, !noundef !10
  %5 = trunc i8 %4 to i1
  %6 = select i1 %5, i32 1, i32 0
  %7 = sext i32 %6 to i64
  ret i64 %7
}

; Function Attrs: nounwind uwtable
define internal void @check_collation_set(i32 noundef %0) #1 {
  %2 = alloca i32, align 4
  store i32 %0, ptr %2, align 4
  %3 = load i32, ptr %2, align 4
  %4 = icmp ne i32 %3, 0
  br i1 %4, label %17, label %5

5:                                                ; preds = %1
  br label %6

6:                                                ; preds = %5
  br i1 true, label %7, label %9

7:                                                ; preds = %6
  %8 = call zeroext i1 @errstart_cold(i32 noundef 21, ptr noundef null) #14
  br i1 %8, label %11, label %15

9:                                                ; preds = %6
  %10 = call zeroext i1 @errstart(i32 noundef 21, ptr noundef null)
  br i1 %10, label %11, label %15

11:                                               ; preds = %9, %7
  %12 = call i32 @errcode(i32 noundef 34209924)
  %13 = call i32 (ptr, ...) @errmsg(ptr noundef @.str.36)
  %14 = call i32 (ptr, ...) @errhint(ptr noundef @.str.37)
  call void @errfinish(ptr noundef @.str.2, i32 noundef 1520, ptr noundef @__func__.check_collation_set)
  br label %15

15:                                               ; preds = %11, %9, %7
  unreachable

16:                                               ; No predecessors!
  br label %17

17:                                               ; preds = %16, %1
  ret void
}

; Function Attrs: inlinehint nounwind uwtable
define internal ptr @DatumGetPointer(i64 noundef %0) #0 {
  %2 = alloca i64, align 8
  store i64 %0, ptr %2, align 8
  %3 = load i64, ptr %2, align 8
  %4 = inttoptr i64 %3 to ptr
  ret ptr %4
}

; Function Attrs: inlinehint nounwind uwtable
define internal ptr @DatumGetName(i64 noundef %0) #0 {
  %2 = alloca i64, align 8
  store i64 %0, ptr %2, align 8
  %3 = load i64, ptr %2, align 8
  %4 = call ptr @DatumGetPointer(i64 noundef %3)
  ret ptr %4
}

; Function Attrs: nounwind uwtable
define dso_local i64 @nameeqtext(ptr noundef %0) #1 {
  %2 = alloca ptr, align 8
  %3 = alloca ptr, align 8
  %4 = alloca ptr, align 8
  %5 = alloca i64, align 8
  %6 = alloca i64, align 8
  %7 = alloca i32, align 4
  %8 = alloca i8, align 1
  store ptr %0, ptr %2, align 8
  call void @llvm.lifetime.start.p0(i64 8, ptr %3) #13
  %9 = load ptr, ptr %2, align 8
  %10 = getelementptr inbounds nuw %struct.FunctionCallInfoBaseData, ptr %9, i32 0, i32 6
  %11 = getelementptr inbounds [0 x %struct.NullableDatum], ptr %10, i64 0, i64 0
  %12 = getelementptr inbounds nuw %struct.NullableDatum, ptr %11, i32 0, i32 0
  %13 = load i64, ptr %12, align 8
  %14 = call ptr @DatumGetName(i64 noundef %13)
  store ptr %14, ptr %3, align 8
  call void @llvm.lifetime.start.p0(i64 8, ptr %4) #13
  %15 = load ptr, ptr %2, align 8
  %16 = getelementptr inbounds nuw %struct.FunctionCallInfoBaseData, ptr %15, i32 0, i32 6
  %17 = getelementptr inbounds [0 x %struct.NullableDatum], ptr %16, i64 0, i64 1
  %18 = getelementptr inbounds nuw %struct.NullableDatum, ptr %17, i32 0, i32 0
  %19 = load i64, ptr %18, align 8
  %20 = call ptr @DatumGetPointer(i64 noundef %19)
  %21 = call ptr @pg_detoast_datum_packed(ptr noundef %20)
  store ptr %21, ptr %4, align 8
  call void @llvm.lifetime.start.p0(i64 8, ptr %5) #13
  %22 = load ptr, ptr %3, align 8
  %23 = getelementptr inbounds nuw %struct.nameData, ptr %22, i32 0, i32 0
  %24 = getelementptr inbounds [64 x i8], ptr %23, i64 0, i64 0
  %25 = call i64 @strlen(ptr noundef %24) #12
  store i64 %25, ptr %5, align 8
  call void @llvm.lifetime.start.p0(i64 8, ptr %6) #13
  %26 = load ptr, ptr %4, align 8
  %27 = getelementptr inbounds nuw %struct.varattrib_1b, ptr %26, i32 0, i32 0
  %28 = load i8, ptr %27, align 1
  %29 = zext i8 %28 to i32
  %30 = icmp eq i32 %29, 1
  br i1 %30, label %31, label %59

31:                                               ; preds = %1
  %32 = load ptr, ptr %4, align 8
  %33 = getelementptr inbounds nuw %struct.varattrib_1b_e, ptr %32, i32 0, i32 1
  %34 = load i8, ptr %33, align 1
  %35 = zext i8 %34 to i32
  %36 = icmp eq i32 %35, 1
  br i1 %36, label %37, label %38

37:                                               ; preds = %31
  br label %55

38:                                               ; preds = %31
  %39 = load ptr, ptr %4, align 8
  %40 = getelementptr inbounds nuw %struct.varattrib_1b_e, ptr %39, i32 0, i32 1
  %41 = load i8, ptr %40, align 1
  %42 = zext i8 %41 to i32
  %43 = and i32 %42, -2
  %44 = icmp eq i32 %43, 2
  br i1 %44, label %45, label %46

45:                                               ; preds = %38
  br label %53

46:                                               ; preds = %38
  %47 = load ptr, ptr %4, align 8
  %48 = getelementptr inbounds nuw %struct.varattrib_1b_e, ptr %47, i32 0, i32 1
  %49 = load i8, ptr %48, align 1
  %50 = zext i8 %49 to i32
  %51 = icmp eq i32 %50, 18
  %52 = select i1 %51, i64 16, i64 0
  br label %53

53:                                               ; preds = %46, %45
  %54 = phi i64 [ 8, %45 ], [ %52, %46 ]
  br label %55

55:                                               ; preds = %53, %37
  %56 = phi i64 [ 8, %37 ], [ %54, %53 ]
  %57 = add i64 2, %56
  %58 = sub i64 %57, 2
  br label %85

59:                                               ; preds = %1
  %60 = load ptr, ptr %4, align 8
  %61 = getelementptr inbounds nuw %struct.varattrib_1b, ptr %60, i32 0, i32 0
  %62 = load i8, ptr %61, align 1
  %63 = zext i8 %62 to i32
  %64 = and i32 %63, 1
  %65 = icmp eq i32 %64, 1
  br i1 %65, label %66, label %75

66:                                               ; preds = %59
  %67 = load ptr, ptr %4, align 8
  %68 = getelementptr inbounds nuw %struct.varattrib_1b, ptr %67, i32 0, i32 0
  %69 = load i8, ptr %68, align 1
  %70 = zext i8 %69 to i32
  %71 = ashr i32 %70, 1
  %72 = and i32 %71, 127
  %73 = sext i32 %72 to i64
  %74 = sub i64 %73, 1
  br label %83

75:                                               ; preds = %59
  %76 = load ptr, ptr %4, align 8
  %77 = getelementptr inbounds nuw %struct.anon, ptr %76, i32 0, i32 0
  %78 = load i32, ptr %77, align 4
  %79 = lshr i32 %78, 2
  %80 = and i32 %79, 1073741823
  %81 = sub i32 %80, 4
  %82 = zext i32 %81 to i64
  br label %83

83:                                               ; preds = %75, %66
  %84 = phi i64 [ %74, %66 ], [ %82, %75 ]
  br label %85

85:                                               ; preds = %83, %55
  %86 = phi i64 [ %58, %55 ], [ %84, %83 ]
  store i64 %86, ptr %6, align 8
  call void @llvm.lifetime.start.p0(i64 4, ptr %7) #13
  %87 = load ptr, ptr %2, align 8
  %88 = getelementptr inbounds nuw %struct.FunctionCallInfoBaseData, ptr %87, i32 0, i32 3
  %89 = load i32, ptr %88, align 8
  store i32 %89, ptr %7, align 4
  call void @llvm.lifetime.start.p0(i64 1, ptr %8) #13
  %90 = load i32, ptr %7, align 4
  call void @check_collation_set(i32 noundef %90)
  %91 = load i32, ptr %7, align 4
  %92 = icmp eq i32 %91, 950
  br i1 %92, label %93, label %123

93:                                               ; preds = %85
  %94 = load i64, ptr %5, align 8
  %95 = load i64, ptr %6, align 8
  %96 = icmp eq i64 %94, %95
  br i1 %96, label %97, label %120

97:                                               ; preds = %93
  %98 = load ptr, ptr %3, align 8
  %99 = getelementptr inbounds nuw %struct.nameData, ptr %98, i32 0, i32 0
  %100 = getelementptr inbounds [64 x i8], ptr %99, i64 0, i64 0
  %101 = load ptr, ptr %4, align 8
  %102 = getelementptr inbounds nuw %struct.varattrib_1b, ptr %101, i32 0, i32 0
  %103 = load i8, ptr %102, align 1
  %104 = zext i8 %103 to i32
  %105 = and i32 %104, 1
  %106 = icmp eq i32 %105, 1
  br i1 %106, label %107, label %111

107:                                              ; preds = %97
  %108 = load ptr, ptr %4, align 8
  %109 = getelementptr inbounds nuw %struct.varattrib_1b, ptr %108, i32 0, i32 1
  %110 = getelementptr inbounds [0 x i8], ptr %109, i64 0, i64 0
  br label %115

111:                                              ; preds = %97
  %112 = load ptr, ptr %4, align 8
  %113 = getelementptr inbounds nuw %struct.anon, ptr %112, i32 0, i32 1
  %114 = getelementptr inbounds [0 x i8], ptr %113, i64 0, i64 0
  br label %115

115:                                              ; preds = %111, %107
  %116 = phi ptr [ %110, %107 ], [ %114, %111 ]
  %117 = load i64, ptr %5, align 8
  %118 = call i32 @memcmp(ptr noundef %100, ptr noundef %116, i64 noundef %117) #12
  %119 = icmp eq i32 %118, 0
  br label %120

120:                                              ; preds = %115, %93
  %121 = phi i1 [ false, %93 ], [ %119, %115 ]
  %122 = zext i1 %121 to i8
  store i8 %122, ptr %8, align 1
  br label %151

123:                                              ; preds = %85
  %124 = load ptr, ptr %3, align 8
  %125 = getelementptr inbounds nuw %struct.nameData, ptr %124, i32 0, i32 0
  %126 = getelementptr inbounds [64 x i8], ptr %125, i64 0, i64 0
  %127 = load i64, ptr %5, align 8
  %128 = trunc i64 %127 to i32
  %129 = load ptr, ptr %4, align 8
  %130 = getelementptr inbounds nuw %struct.varattrib_1b, ptr %129, i32 0, i32 0
  %131 = load i8, ptr %130, align 1
  %132 = zext i8 %131 to i32
  %133 = and i32 %132, 1
  %134 = icmp eq i32 %133, 1
  br i1 %134, label %135, label %139

135:                                              ; preds = %123
  %136 = load ptr, ptr %4, align 8
  %137 = getelementptr inbounds nuw %struct.varattrib_1b, ptr %136, i32 0, i32 1
  %138 = getelementptr inbounds [0 x i8], ptr %137, i64 0, i64 0
  br label %143

139:                                              ; preds = %123
  %140 = load ptr, ptr %4, align 8
  %141 = getelementptr inbounds nuw %struct.anon, ptr %140, i32 0, i32 1
  %142 = getelementptr inbounds [0 x i8], ptr %141, i64 0, i64 0
  br label %143

143:                                              ; preds = %139, %135
  %144 = phi ptr [ %138, %135 ], [ %142, %139 ]
  %145 = load i64, ptr %6, align 8
  %146 = trunc i64 %145 to i32
  %147 = load i32, ptr %7, align 4
  %148 = call i32 @varstr_cmp(ptr noundef %126, i32 noundef %128, ptr noundef %144, i32 noundef %146, i32 noundef %147)
  %149 = icmp eq i32 %148, 0
  %150 = zext i1 %149 to i8
  store i8 %150, ptr %8, align 1
  br label %151

151:                                              ; preds = %143, %120
  br label %152

152:                                              ; preds = %151
  %153 = load ptr, ptr %4, align 8
  %154 = load ptr, ptr %2, align 8
  %155 = getelementptr inbounds nuw %struct.FunctionCallInfoBaseData, ptr %154, i32 0, i32 6
  %156 = getelementptr inbounds [0 x %struct.NullableDatum], ptr %155, i64 0, i64 1
  %157 = getelementptr inbounds nuw %struct.NullableDatum, ptr %156, i32 0, i32 0
  %158 = load i64, ptr %157, align 8
  %159 = call ptr @DatumGetPointer(i64 noundef %158)
  %160 = icmp ne ptr %153, %159
  br i1 %160, label %161, label %163

161:                                              ; preds = %152
  %162 = load ptr, ptr %4, align 8
  call void @pfree(ptr noundef %162)
  br label %163

163:                                              ; preds = %161, %152
  br label %164

164:                                              ; preds = %163
  br label %165

165:                                              ; preds = %164
  %166 = load i8, ptr %8, align 1, !range !9, !noundef !10
  %167 = trunc i8 %166 to i1
  %168 = call i64 @BoolGetDatum(i1 noundef zeroext %167)
  call void @llvm.lifetime.end.p0(i64 1, ptr %8) #13
  call void @llvm.lifetime.end.p0(i64 4, ptr %7) #13
  call void @llvm.lifetime.end.p0(i64 8, ptr %6) #13
  call void @llvm.lifetime.end.p0(i64 8, ptr %5) #13
  call void @llvm.lifetime.end.p0(i64 8, ptr %4) #13
  call void @llvm.lifetime.end.p0(i64 8, ptr %3) #13
  ret i64 %168
}