; Function Attrs: nounwind uwtable
define dso_local range(i64 0, 2) i64 @nameeqtext(ptr noundef readonly captures(none) %0) local_unnamed_addr #0 {
  %2 = getelementptr inbounds nuw i8, ptr %0, i64 32
  %3 = load i64, ptr %2, align 8
  %4 = inttoptr i64 %3 to ptr
  %5 = getelementptr inbounds nuw i8, ptr %0, i64 48
  %6 = load i64, ptr %5, align 8
  %7 = inttoptr i64 %6 to ptr
  %8 = tail call ptr @pg_detoast_datum_packed(ptr noundef %7) #19
  %9 = tail call i64 @strlen(ptr noundef nonnull dereferenceable(1) %4) #18
  %10 = load i8, ptr %8, align 1
  %11 = zext i8 %10 to i32
  %12 = icmp eq i8 %10, 1
  br i1 %12, label %13, label %22

13:                                               ; preds = %1
  %14 = getelementptr inbounds nuw i8, ptr %8, i64 1
  %15 = load i8, ptr %14, align 1
  %16 = icmp eq i8 %15, 1
  %17 = and i8 %15, -2
  %18 = icmp eq i8 %17, 2
  %or.cond = or i1 %16, %18
  %19 = icmp eq i8 %15, 18
  %20 = select i1 %19, i64 16, i64 0
  %21 = select i1 %or.cond, i64 8, i64 %20
  br label %33

22:                                               ; preds = %1
  %23 = and i32 %11, 1
  %.not = icmp eq i32 %23, 0
  br i1 %.not, label %28, label %24

24:                                               ; preds = %22
  %25 = lshr i32 %11, 1
  %26 = zext nneg i32 %25 to i64
  %27 = add nsw i64 %26, -1
  br label %33

28:                                               ; preds = %22
  %29 = load i32, ptr %8, align 4
  %30 = lshr i32 %29, 2
  %31 = add nsw i32 %30, -4
  %32 = zext i32 %31 to i64
  br label %33

33:                                               ; preds = %24, %28, %13
  %34 = phi i64 [ %21, %13 ], [ %27, %24 ], [ %32, %28 ]
  %35 = getelementptr inbounds nuw i8, ptr %0, i64 24
  %36 = load i32, ptr %35, align 8
  switch i32 %36, label %48 [
    i32 0, label %37
    i32 950, label %42
  ]

37:                                               ; preds = %33
  %38 = tail call zeroext i1 @errstart_cold(i32 noundef 21, ptr noundef null) #20
  tail call void @llvm.assume(i1 %38)
  %39 = tail call i32 @errcode(i32 noundef 34209924) #19
  %40 = tail call i32 (ptr, ...) @errmsg(ptr noundef nonnull @.str.36) #19
  %41 = tail call i32 (ptr, ...) @errhint(ptr noundef nonnull @.str.37) #19
  tail call void @errfinish(ptr noundef nonnull @.str.2, i32 noundef 1520, ptr noundef nonnull @__func__.check_collation_set) #19
  unreachable

42:                                               ; preds = %33
  %43 = icmp eq i64 %9, %34
  br i1 %43, label %44, label %55

44:                                               ; preds = %42
  %45 = and i8 %10, 1
  %.not36 = icmp eq i8 %45, 0
  %.v37 = select i1 %.not36, i64 4, i64 1
  %46 = getelementptr inbounds nuw i8, ptr %8, i64 %.v37
  %bcmp = tail call i32 @bcmp(ptr nonnull %4, ptr nonnull %46, i64 %9)
  %47 = icmp eq i32 %bcmp, 0
  br label %55

48:                                               ; preds = %33
  %49 = trunc i64 %9 to i32
  %50 = and i8 %10, 1
  %.not35 = icmp eq i8 %50, 0
  %.v = select i1 %.not35, i64 4, i64 1
  %51 = getelementptr inbounds nuw i8, ptr %8, i64 %.v
  %52 = trunc i64 %34 to i32
  %53 = tail call i32 @varstr_cmp(ptr noundef nonnull %4, i32 noundef %49, ptr noundef nonnull %51, i32 noundef %52, i32 noundef %36)
  %54 = icmp eq i32 %53, 0
  br label %55

55:                                               ; preds = %42, %44, %48
  %.0 = phi i1 [ %54, %48 ], [ false, %42 ], [ %47, %44 ]
  %56 = load i64, ptr %5, align 8
  %57 = inttoptr i64 %56 to ptr
  %.not38 = icmp eq ptr %8, %57
  br i1 %.not38, label %59, label %58

58:                                               ; preds = %55
  tail call void @pfree(ptr noundef nonnull %8) #19
  br label %59

59:                                               ; preds = %58, %55
  %60 = zext i1 %.0 to i64
  ret i64 %60
}